; Function Attrs: mustprogress uwtable
define void @_ZNK6casadi9Assertion10ad_forwardERKSt6vectorIS1_INS_2MXESaIS2_EESaIS4_EERS6_(ptr nocapture nonnull readnone align 8 %0, ptr nocapture noundef nonnull readonly align 8 dereferenceable(24) %1, ptr nocapture noundef nonnull readonly align 8 dereferenceable(24) %2) unnamed_addr #3 align 2 {
  %4 = getelementptr inbounds i8, ptr %2, i64 8
  %5 = load ptr, ptr %4, align 8
  %6 = load ptr, ptr %2, align 8
  %.not = icmp eq ptr %5, %6
  br i1 %.not, label %._crit_edge, label %.lr.ph

.lr.ph:                                           ; preds = %3, %.lr.ph
  %7 = phi ptr [ %16, %.lr.ph ], [ %6, %3 ]
  %.06 = phi i64 [ %14, %.lr.ph ], [ 0, %3 ]
  %8 = load ptr, ptr %1, align 8
  %9 = getelementptr inbounds %"class.std::vector", ptr %8, i64 %.06
  %10 = load ptr, ptr %9, align 8
  %11 = getelementptr inbounds %"class.std::vector", ptr %7, i64 %.06
  %12 = load ptr, ptr %11, align 8
  %13 = tail call noundef nonnull align 8 dereferenceable(8) ptr @_ZN6casadi12SharedObjectaSERKS0_(ptr noundef nonnull align 8 dereferenceable(8) %12, ptr noundef nonnull align 8 dereferenceable(8) %10)
  %14 = add nuw nsw i64 %.06, 1
  %15 = load ptr, ptr %4, align 8
  %16 = load ptr, ptr %2, align 8
  %17 = ptrtoint ptr %15 to i64
  %18 = ptrtoint ptr %16 to i64
  %19 = sub i64 %17, %18
  %20 = sdiv exact i64 %19, 24
  %21 = icmp ult i64 %14, %20
  br i1 %21, label %.lr.ph, label %._crit_edge, !llvm.loop !9

._crit_edge:                                      ; preds = %.lr.ph, %3
  ret void
}